target datalayout = "e-m:e-p270:32:32-p271:32:32-p272:64:64-i64:64-i128:128-f80:128-n8:16:32:64-S128"
target triple = "x86_64-pc-linux-gnu"

%struct.PgStat_EntryRef = type { ptr, ptr, i32, ptr, %struct.dlist_node }
%struct.dlist_node = type { ptr, ptr }
%struct.PgStatShared_Relation = type { %struct.PgStatShared_Common, %struct.PgStat_StatTabEntry }
%struct.PgStatShared_Common = type { i32, %struct.LWLock }
%struct.LWLock = type { i16, %struct.pg_atomic_uint32, %struct.proclist_head }
%struct.pg_atomic_uint32 = type { i32 }
%struct.proclist_head = type { i32, i32 }
%struct.PgStat_StatTabEntry = type { i64, i64, i64, i64, i64, i64, i64, i64, i64, i64, i64, i64, i64, i64, i64, i64, i64, i64, i64, i64, i64, i64, i64, i64, i64, i64, i64 }

@MyDatabaseId = external global i32, align 4
@pgstat_track_counts = external global i8, align 1
@MyBackendType = external global i32, align 4

; Function Attrs: nounwind uwtable
define dso_local void @pgstat_report_vacuum(i32 noundef %0, i1 noundef zeroext %1, i64 noundef %2, i64 noundef %3, i64 noundef %4) #0 {
  %6 = alloca i32, align 4
  %7 = alloca i8, align 1
  %8 = alloca i64, align 8
  %9 = alloca i64, align 8
  %10 = alloca i64, align 8
  %11 = alloca ptr, align 8
  %12 = alloca ptr, align 8
  %13 = alloca ptr, align 8
  %14 = alloca i32, align 4
  %15 = alloca i64, align 8
  %16 = alloca i64, align 8
  %17 = alloca i32, align 4
  store i32 %0, ptr %6, align 4
  %18 = zext i1 %1 to i8
  store i8 %18, ptr %7, align 1
  store i64 %2, ptr %8, align 8
  store i64 %3, ptr %9, align 8
  store i64 %4, ptr %10, align 8
  call void @llvm.lifetime.start.p0(i64 8, ptr %11) #6
  call void @llvm.lifetime.start.p0(i64 8, ptr %12) #6
  call void @llvm.lifetime.start.p0(i64 8, ptr %13) #6
  call void @llvm.lifetime.start.p0(i64 4, ptr %14) #6
  %19 = load i8, ptr %7, align 1, !range !4, !noundef !5
  %20 = trunc i8 %19 to i1
  br i1 %20, label %21, label %22

21:                                               ; preds = %5
  br label %24

22:                                               ; preds = %5
  %23 = load i32, ptr @MyDatabaseId, align 4
  br label %24

24:                                               ; preds = %22, %21
  %25 = phi i32 [ 0, %21 ], [ %23, %22 ]
  store i32 %25, ptr %14, align 4
  call void @llvm.lifetime.start.p0(i64 8, ptr %15) #6
  call void @llvm.lifetime.start.p0(i64 8, ptr %16) #6
  %26 = load i8, ptr @pgstat_track_counts, align 1, !range !4, !noundef !5
  %27 = trunc i8 %26 to i1
  br i1 %27, label %29, label %28

28:                                               ; preds = %24
  store i32 1, ptr %17, align 4
  br label %82

29:                                               ; preds = %24
  %30 = call i64 @GetCurrentTimestamp()
  store i64 %30, ptr %15, align 8
  %31 = load i64, ptr %10, align 8
  %32 = load i64, ptr %15, align 8
  %33 = call i64 @TimestampDifferenceMilliseconds(i64 noundef %31, i64 noundef %32)
  store i64 %33, ptr %16, align 8
  %34 = load i32, ptr %14, align 4
  %35 = load i32, ptr %6, align 4
  %36 = zext i32 %35 to i64
  %37 = call ptr @pgstat_get_entry_ref_locked(i32 noundef 2, i32 noundef %34, i64 noundef %36, i1 noundef zeroext false)
  store ptr %37, ptr %11, align 8
  %38 = load ptr, ptr %11, align 8
  %39 = getelementptr inbounds nuw %struct.PgStat_EntryRef, ptr %38, i32 0, i32 1
  %40 = load ptr, ptr %39, align 8
  store ptr %40, ptr %12, align 8
  %41 = load ptr, ptr %12, align 8
  %42 = getelementptr inbounds nuw %struct.PgStatShared_Relation, ptr %41, i32 0, i32 1
  store ptr %42, ptr %13, align 8
  %43 = load i64, ptr %8, align 8
  %44 = load ptr, ptr %13, align 8
  %45 = getelementptr inbounds nuw %struct.PgStat_StatTabEntry, ptr %44, i32 0, i32 9
  store i64 %43, ptr %45, align 8
  %46 = load i64, ptr %9, align 8
  %47 = load ptr, ptr %13, align 8
  %48 = getelementptr inbounds nuw %struct.PgStat_StatTabEntry, ptr %47, i32 0, i32 10
  store i64 %46, ptr %48, align 8
  %49 = load ptr, ptr %13, align 8
  %50 = getelementptr inbounds nuw %struct.PgStat_StatTabEntry, ptr %49, i32 0, i32 12
  store i64 0, ptr %50, align 8
  %51 = load i32, ptr @MyBackendType, align 4
  %52 = icmp eq i32 %51, 4
  br i1 %52, label %53, label %66

53:                                               ; preds = %29
  %54 = load i64, ptr %15, align 8
  %55 = load ptr, ptr %13, align 8
  %56 = getelementptr inbounds nuw %struct.PgStat_StatTabEntry, ptr %55, i32 0, i32 17
  store i64 %54, ptr %56, align 8
  %57 = load ptr, ptr %13, align 8
  %58 = getelementptr inbounds nuw %struct.PgStat_StatTabEntry, ptr %57, i32 0, i32 18
  %59 = load i64, ptr %58, align 8
  %60 = add i64 %59, 1
  store i64 %60, ptr %58, align 8
  %61 = load i64, ptr %16, align 8
  %62 = load ptr, ptr %13, align 8
  %63 = getelementptr inbounds nuw %struct.PgStat_StatTabEntry, ptr %62, i32 0, i32 24
  %64 = load i64, ptr %63, align 8
  %65 = add i64 %64, %61
  store i64 %65, ptr %63, align 8
  br label %79

66:                                               ; preds = %29
  %67 = load i64, ptr %15, align 8
  %68 = load ptr, ptr %13, align 8
  %69 = getelementptr inbounds nuw %struct.PgStat_StatTabEntry, ptr %68, i32 0, i32 15
  store i64 %67, ptr %69, align 8
  %70 = load ptr, ptr %13, align 8
  %71 = getelementptr inbounds nuw %struct.PgStat_StatTabEntry, ptr %70, i32 0, i32 16
  %72 = load i64, ptr %71, align 8
  %73 = add i64 %72, 1
  store i64 %73, ptr %71, align 8
  %74 = load i64, ptr %16, align 8
  %75 = load ptr, ptr %13, align 8
  %76 = getelementptr inbounds nuw %struct.PgStat_StatTabEntry, ptr %75, i32 0, i32 23
  %77 = load i64, ptr %76, align 8
  %78 = add i64 %77, %74
  store i64 %78, ptr %76, align 8
  br label %79

79:                                               ; preds = %66, %53
  %80 = load ptr, ptr %11, align 8
  call void @pgstat_unlock_entry(ptr noundef %80)
  call void @pgstat_flush_io(i1 noundef zeroext false)
  %81 = call zeroext i1 @pgstat_flush_backend(i1 noundef zeroext false, i32 noundef 1)
  store i32 0, ptr %17, align 4
  br label %82

82:                                               ; preds = %79, %28
  call void @llvm.lifetime.end.p0(i64 8, ptr %16) #6
  call void @llvm.lifetime.end.p0(i64 8, ptr %15) #6
  call void @llvm.lifetime.end.p0(i64 4, ptr %14) #6
  call void @llvm.lifetime.end.p0(i64 8, ptr %13) #6
  call void @llvm.lifetime.end.p0(i64 8, ptr %12) #6
  call void @llvm.lifetime.end.p0(i64 8, ptr %11) #6
  %83 = load i32, ptr %17, align 4
  switch i32 %83, label %85 [
    i32 0, label %84
    i32 1, label %84
  ]

84:                                               ; preds = %82, %82
  ret void

85:                                               ; preds = %82
  unreachable
}