; Function Attrs: nounwind uwtable
define dso_local void @pgstat_report_vacuum(i32 noundef %0, i1 noundef zeroext %1, i64 noundef %2, i64 noundef %3, i64 noundef %4) local_unnamed_addr #0 {
  %6 = load i8, ptr @pgstat_track_counts, align 1, !range !4, !noundef !5
  %7 = trunc nuw i8 %6 to i1
  br i1 %7, label %8, label %30

8:                                                ; preds = %5
  %9 = load i32, ptr @MyDatabaseId, align 4
  %10 = select i1 %1, i32 0, i32 %9
  %11 = tail call i64 @GetCurrentTimestamp() #9
  %12 = tail call i64 @TimestampDifferenceMilliseconds(i64 noundef %4, i64 noundef %11) #9
  %13 = zext i32 %0 to i64
  %14 = tail call ptr @pgstat_get_entry_ref_locked(i32 noundef 2, i32 noundef %10, i64 noundef %13, i1 noundef zeroext false) #9
  %15 = getelementptr inbounds nuw i8, ptr %14, i64 8
  %16 = load ptr, ptr %15, align 8
  %17 = getelementptr inbounds nuw i8, ptr %16, i64 96
  store i64 %2, ptr %17, align 8
  %18 = getelementptr inbounds nuw i8, ptr %16, i64 104
  store i64 %3, ptr %18, align 8
  %19 = getelementptr inbounds nuw i8, ptr %16, i64 120
  store i64 0, ptr %19, align 8
  %20 = load i32, ptr @MyBackendType, align 4
  %21 = icmp eq i32 %20, 4
  %. = select i1 %21, i64 160, i64 144
  %.29 = select i1 %21, i64 168, i64 152
  %.30 = select i1 %21, i64 216, i64 208
  %22 = getelementptr inbounds nuw i8, ptr %16, i64 %.
  store i64 %11, ptr %22, align 8
  %23 = getelementptr inbounds nuw i8, ptr %16, i64 %.29
  %24 = load i64, ptr %23, align 8
  %25 = add i64 %24, 1
  store i64 %25, ptr %23, align 8
  %26 = getelementptr inbounds nuw i8, ptr %16, i64 %.30
  %27 = load i64, ptr %26, align 8
  %28 = add i64 %27, %12
  store i64 %28, ptr %26, align 8
  tail call void @pgstat_unlock_entry(ptr noundef nonnull %14) #9
  tail call void @pgstat_flush_io(i1 noundef zeroext false) #9
  %29 = tail call zeroext i1 @pgstat_flush_backend(i1 noundef zeroext false, i32 noundef 1) #9
  br label %30

30:                                               ; preds = %5, %8
  ret void
}